target datalayout = "e-m:e-p270:32:32-p271:32:32-p272:64:64-i64:64-i128:128-f80:128-n8:16:32:64-S128"
target triple = "x86_64-pc-linux-gnu"

%struct.expert_field = type { i32, i32 }

@hf_gsm_a_rr_range_lower = internal global i32 0, align 4
@hf_gsm_a_rr_range_higher = internal global i32 0, align 4
@hf_gsm_a_rr_ba_freq = internal global i32 0, align 4
@hf_gsm_a_rr_repeat_range_limit = internal global i32 0, align 4
@hf_gsm_a_rr_repeat_ba_frequency = internal global i32 0, align 4
@ei_gsm_a_rr_ie_overrun = internal global %struct.expert_field zeroinitializer, align 4
@ei_gsm_a_rr_ie_underrun = internal global %struct.expert_field zeroinitializer, align 4

; Function Attrs: null_pointer_is_valid sspstrong uwtable
define internal zeroext i1 @gsm_rr_csn_flag(ptr noundef %0, ptr noundef %1, i32 noundef %2, i32 noundef %3) #1 {
  %5 = alloca ptr, align 8
  %6 = alloca ptr, align 8
  %7 = alloca i32, align 4
  %8 = alloca i32, align 4
  %9 = alloca i8, align 1
  %10 = alloca i8, align 1
  store ptr %0, ptr %5, align 8
  store ptr %1, ptr %6, align 8
  store i32 %2, ptr %7, align 4
  store i32 %3, ptr %8, align 4
  call void @llvm.lifetime.start.p0(i64 1, ptr %9) #11
  %11 = load i32, ptr %7, align 4
  %12 = srem i32 %11, 8
  %13 = ashr i32 128, %12
  %14 = trunc i32 %13 to i8
  store i8 %14, ptr %9, align 1
  call void @llvm.lifetime.start.p0(i64 1, ptr %10) #11
  %15 = load ptr, ptr %5, align 8
  %16 = load i32, ptr %7, align 4
  %17 = ashr i32 %16, 3
  %18 = call zeroext i8 @tvb_get_uint8(ptr noundef %15, i32 noundef %17)
  store i8 %18, ptr %10, align 1
  %19 = load ptr, ptr %6, align 8
  %20 = load i32, ptr %8, align 4
  %21 = load ptr, ptr %5, align 8
  %22 = load i32, ptr %7, align 4
  %23 = call ptr @proto_tree_add_bits_item(ptr noundef %19, i32 noundef %20, ptr noundef %21, i32 noundef %22, i32 noundef 1, i32 noundef 0)
  %24 = load i8, ptr %10, align 1
  %25 = zext i8 %24 to i32
  %26 = load i8, ptr %9, align 1
  %27 = zext i8 %26 to i32
  %28 = and i32 %25, %27
  %29 = icmp ne i32 %28, 0
  call void @llvm.lifetime.end.p0(i64 1, ptr %10) #11
  call void @llvm.lifetime.end.p0(i64 1, ptr %9) #11
  ret i1 %29
}

; Function Attrs: null_pointer_is_valid sspstrong uwtable
define internal zeroext i16 @de_rr_ba_list_pref(ptr noundef %0, ptr noundef %1, ptr noundef %2, i32 noundef %3, i32 noundef %4, ptr noundef %5, i32 noundef %6) #1 {
  %8 = alloca ptr, align 8
  %9 = alloca ptr, align 8
  %10 = alloca ptr, align 8
  %11 = alloca i32, align 4
  %12 = alloca i32, align 4
  %13 = alloca ptr, align 8
  %14 = alloca i32, align 4
  %15 = alloca i32, align 4
  store ptr %0, ptr %8, align 8
  store ptr %1, ptr %9, align 8
  store ptr %2, ptr %10, align 8
  store i32 %3, ptr %11, align 4
  store i32 %4, ptr %12, align 4
  store ptr %5, ptr %13, align 8
  store i32 %6, ptr %14, align 4
  call void @llvm.lifetime.start.p0(i64 4, ptr %15) #11
  %16 = load i32, ptr %11, align 4
  %17 = shl i32 %16, 3
  store i32 %17, ptr %15, align 4
  br label %18

18:                                               ; preds = %25, %7
  %19 = load ptr, ptr %8, align 8
  %20 = load ptr, ptr %9, align 8
  %21 = load i32, ptr %15, align 4
  %22 = add i32 %21, 1
  store i32 %22, ptr %15, align 4
  %23 = load i32, ptr @hf_gsm_a_rr_repeat_range_limit, align 4
  %24 = call zeroext i1 @gsm_rr_csn_flag(ptr noundef %19, ptr noundef %20, i32 noundef %21, i32 noundef %23)
  br i1 %24, label %25, label %40

25:                                               ; preds = %18
  %26 = load ptr, ptr %9, align 8
  %27 = load i32, ptr @hf_gsm_a_rr_range_lower, align 4
  %28 = load ptr, ptr %8, align 8
  %29 = load i32, ptr %15, align 4
  %30 = call ptr @proto_tree_add_bits_item(ptr noundef %26, i32 noundef %27, ptr noundef %28, i32 noundef %29, i32 noundef 10, i32 noundef 0)
  %31 = load i32, ptr %15, align 4
  %32 = add i32 %31, 10
  store i32 %32, ptr %15, align 4
  %33 = load ptr, ptr %9, align 8
  %34 = load i32, ptr @hf_gsm_a_rr_range_higher, align 4
  %35 = load ptr, ptr %8, align 8
  %36 = load i32, ptr %15, align 4
  %37 = call ptr @proto_tree_add_bits_item(ptr noundef %33, i32 noundef %34, ptr noundef %35, i32 noundef %36, i32 noundef 10, i32 noundef 0)
  %38 = load i32, ptr %15, align 4
  %39 = add i32 %38, 10
  store i32 %39, ptr %15, align 4
  br label %18, !llvm.loop !17

40:                                               ; preds = %18
  br label %41

41:                                               ; preds = %48, %40
  %42 = load ptr, ptr %8, align 8
  %43 = load ptr, ptr %9, align 8
  %44 = load i32, ptr %15, align 4
  %45 = add i32 %44, 1
  store i32 %45, ptr %15, align 4
  %46 = load i32, ptr @hf_gsm_a_rr_repeat_ba_frequency, align 4
  %47 = call zeroext i1 @gsm_rr_csn_flag(ptr noundef %42, ptr noundef %43, i32 noundef %44, i32 noundef %46)
  br i1 %47, label %48, label %56

48:                                               ; preds = %41
  %49 = load ptr, ptr %9, align 8
  %50 = load i32, ptr @hf_gsm_a_rr_ba_freq, align 4
  %51 = load ptr, ptr %8, align 8
  %52 = load i32, ptr %15, align 4
  %53 = call ptr @proto_tree_add_bits_item(ptr noundef %49, i32 noundef %50, ptr noundef %51, i32 noundef %52, i32 noundef 10, i32 noundef 0)
  %54 = load i32, ptr %15, align 4
  %55 = add i32 %54, 10
  store i32 %55, ptr %15, align 4
  br label %41, !llvm.loop !18

56:                                               ; preds = %41
  %57 = load i32, ptr %15, align 4
  %58 = add i32 %57, 7
  %59 = lshr i32 %58, 3
  %60 = load i32, ptr %11, align 4
  %61 = load i32, ptr %12, align 4
  %62 = add i32 %60, %61
  %63 = icmp ugt i32 %59, %62
  br i1 %63, label %64, label %69

64:                                               ; preds = %56
  %65 = load ptr, ptr %10, align 8
  %66 = load ptr, ptr %9, align 8
  %67 = call ptr @proto_tree_get_parent(ptr noundef %66)
  %68 = call ptr @expert_add_info(ptr noundef %65, ptr noundef %67, ptr noundef @ei_gsm_a_rr_ie_overrun)
  br label %82

69:                                               ; preds = %56
  %70 = load i32, ptr %15, align 4
  %71 = lshr i32 %70, 3
  %72 = load i32, ptr %11, align 4
  %73 = load i32, ptr %12, align 4
  %74 = add i32 %72, %73
  %75 = icmp ult i32 %71, %74
  br i1 %75, label %76, label %81

76:                                               ; preds = %69
  %77 = load ptr, ptr %10, align 8
  %78 = load ptr, ptr %9, align 8
  %79 = call ptr @proto_tree_get_parent(ptr noundef %78)
  %80 = call ptr @expert_add_info(ptr noundef %77, ptr noundef %79, ptr noundef @ei_gsm_a_rr_ie_underrun)
  br label %81

81:                                               ; preds = %76, %69
  br label %82

82:                                               ; preds = %81, %64
  %83 = load i32, ptr %12, align 4
  %84 = trunc i32 %83 to i16
  call void @llvm.lifetime.end.p0(i64 4, ptr %15) #11
  ret i16 %84
}