; Function Attrs: null_pointer_is_valid sspstrong uwtable
define internal noundef zeroext i16 @de_rr_ba_list_pref(ptr noundef %0, ptr noundef %1, ptr noundef %2, i32 noundef %3, i32 noundef %4, ptr readnone captures(none) %5, i32 %6) #3 {
  %8 = shl i32 %3, 3
  br label %9

9:                                                ; preds = %19, %7
  %.0 = phi i32 [ %8, %7 ], [ %25, %19 ]
  %10 = add i32 %.0, 1
  %11 = load i32, ptr @hf_gsm_a_rr_repeat_range_limit, align 4
  %12 = and i32 %.0, 7
  %13 = lshr exact i32 128, %12
  %14 = ashr i32 %.0, 3
  %15 = tail call zeroext i8 @tvb_get_uint8(ptr noundef %0, i32 noundef %14)
  %16 = tail call ptr @proto_tree_add_bits_item(ptr noundef %1, i32 noundef %11, ptr noundef %0, i32 noundef %.0, i32 noundef 1, i32 noundef 0)
  %17 = zext i8 %15 to i32
  %18 = and i32 %13, %17
  %.not = icmp eq i32 %18, 0
  br i1 %.not, label %.preheader, label %19

19:                                               ; preds = %9
  %20 = load i32, ptr @hf_gsm_a_rr_range_lower, align 4
  %21 = tail call ptr @proto_tree_add_bits_item(ptr noundef %1, i32 noundef %20, ptr noundef %0, i32 noundef %10, i32 noundef 10, i32 noundef 0)
  %22 = add i32 %.0, 11
  %23 = load i32, ptr @hf_gsm_a_rr_range_higher, align 4
  %24 = tail call ptr @proto_tree_add_bits_item(ptr noundef %1, i32 noundef %23, ptr noundef %0, i32 noundef %22, i32 noundef 10, i32 noundef 0)
  %25 = add i32 %.0, 21
  br label %9, !llvm.loop !15

.preheader:                                       ; preds = %9, %35
  %.1 = phi i32 [ %38, %35 ], [ %10, %9 ]
  %26 = add i32 %.1, 1
  %27 = load i32, ptr @hf_gsm_a_rr_repeat_ba_frequency, align 4
  %28 = and i32 %.1, 7
  %29 = lshr exact i32 128, %28
  %30 = ashr i32 %.1, 3
  %31 = tail call zeroext i8 @tvb_get_uint8(ptr noundef %0, i32 noundef %30)
  %32 = tail call ptr @proto_tree_add_bits_item(ptr noundef %1, i32 noundef %27, ptr noundef %0, i32 noundef %.1, i32 noundef 1, i32 noundef 0)
  %33 = zext i8 %31 to i32
  %34 = and i32 %29, %33
  %.not30 = icmp eq i32 %34, 0
  br i1 %.not30, label %39, label %35

35:                                               ; preds = %.preheader
  %36 = load i32, ptr @hf_gsm_a_rr_ba_freq, align 4
  %37 = tail call ptr @proto_tree_add_bits_item(ptr noundef %1, i32 noundef %36, ptr noundef %0, i32 noundef %26, i32 noundef 10, i32 noundef 0)
  %38 = add i32 %.1, 11
  br label %.preheader, !llvm.loop !16

39:                                               ; preds = %.preheader
  %40 = add i32 %.1, 8
  %41 = lshr i32 %40, 3
  %42 = add i32 %4, %3
  %43 = icmp ugt i32 %41, %42
  br i1 %43, label %.sink.split, label %44

44:                                               ; preds = %39
  %45 = lshr i32 %26, 3
  %46 = icmp ult i32 %45, %42
  br i1 %46, label %.sink.split, label %49

.sink.split:                                      ; preds = %44, %39
  %ei_gsm_a_rr_ie_underrun.sink = phi ptr [ @ei_gsm_a_rr_ie_overrun, %39 ], [ @ei_gsm_a_rr_ie_underrun, %44 ]
  %47 = tail call ptr @proto_tree_get_parent(ptr noundef %1)
  %48 = tail call ptr @expert_add_info(ptr noundef %2, ptr noundef %47, ptr noundef nonnull %ei_gsm_a_rr_ie_underrun.sink)
  br label %49

49:                                               ; preds = %.sink.split, %44
  %50 = trunc i32 %4 to i16
  ret i16 %50
}